; Function Attrs: mustprogress uwtable
define hidden void @_ZN3opt18maxsmt_solver_baseC2ERNS_14maxsat_contextER6vectorINS_4softELb1EjEj(ptr noundef nonnull align 8 dereferenceable(160) initializes((0, 28), (32, 76), (80, 92), (96, 108), (112, 124), (128, 160)) %0, ptr noundef nonnull align 8 dereferenceable(8) %1, ptr noundef nonnull align 8 dereferenceable(8) %2, i32 noundef %3) unnamed_addr #4 align 2 personality ptr @__gxx_personality_v0 {
  store ptr getelementptr inbounds nuw inrange(-16, 80) (i8, ptr @_ZTVN3opt18maxsmt_solver_baseE, i64 16), ptr %0, align 8, !tbaa !3
  %5 = getelementptr inbounds nuw i8, ptr %0, i64 8
  %6 = load ptr, ptr %1, align 8, !tbaa !3
  %7 = getelementptr inbounds nuw i8, ptr %6, i64 40
  %8 = load ptr, ptr %7, align 8
  %9 = tail call noundef nonnull align 8 dereferenceable(976) ptr %8(ptr noundef nonnull align 8 dereferenceable(8) %1)
  store ptr %9, ptr %5, align 8, !tbaa !6
  %10 = getelementptr inbounds nuw i8, ptr %0, i64 16
  store ptr %1, ptr %10, align 8, !tbaa !10
  %11 = getelementptr inbounds nuw i8, ptr %0, i64 24
  store i32 %3, ptr %11, align 8, !tbaa !12
  %12 = getelementptr inbounds nuw i8, ptr %0, i64 32
  store ptr %2, ptr %12, align 8, !tbaa !35
  %13 = getelementptr inbounds nuw i8, ptr %0, i64 40
  %14 = ptrtoint ptr %9 to i64
  store i64 %14, ptr %13, align 8, !tbaa !6
  %15 = getelementptr inbounds nuw i8, ptr %0, i64 48
  store ptr null, ptr %15, align 8, !tbaa !36
  %16 = getelementptr inbounds nuw i8, ptr %0, i64 56
  store i64 %14, ptr %16, align 8, !tbaa !6
  %17 = getelementptr inbounds nuw i8, ptr %0, i64 64
  store ptr null, ptr %17, align 8, !tbaa !36
  %18 = getelementptr inbounds nuw i8, ptr %0, i64 72
  store i32 0, ptr %18, align 8, !tbaa !37
  %19 = getelementptr inbounds nuw i8, ptr %0, i64 76
  %20 = load i8, ptr %19, align 4
  %21 = and i8 %20, -4
  store i8 %21, ptr %19, align 4
  %22 = getelementptr inbounds nuw i8, ptr %0, i64 80
  store ptr null, ptr %22, align 8, !tbaa !38
  %23 = getelementptr inbounds nuw i8, ptr %0, i64 88
  store i32 1, ptr %23, align 8, !tbaa !37
  %24 = getelementptr inbounds nuw i8, ptr %0, i64 92
  %25 = load i8, ptr %24, align 4
  %26 = and i8 %25, -4
  store i8 %26, ptr %24, align 4
  %27 = getelementptr inbounds nuw i8, ptr %0, i64 96
  store ptr null, ptr %27, align 8, !tbaa !38
  %28 = getelementptr inbounds nuw i8, ptr %0, i64 104
  store i32 0, ptr %28, align 8, !tbaa !37
  %29 = getelementptr inbounds nuw i8, ptr %0, i64 108
  %30 = load i8, ptr %29, align 4
  %31 = and i8 %30, -4
  store i8 %31, ptr %29, align 4
  %32 = getelementptr inbounds nuw i8, ptr %0, i64 112
  store ptr null, ptr %32, align 8, !tbaa !38
  %33 = getelementptr inbounds nuw i8, ptr %0, i64 120
  store i32 1, ptr %33, align 8, !tbaa !37
  %34 = getelementptr inbounds nuw i8, ptr %0, i64 124
  %35 = load i8, ptr %34, align 4
  %36 = and i8 %35, -4
  store i8 %36, ptr %34, align 4
  %37 = getelementptr inbounds nuw i8, ptr %0, i64 128
  %38 = getelementptr inbounds nuw i8, ptr %0, i64 136
  tail call void @llvm.memset.p0.i64(ptr noundef nonnull align 8 dereferenceable(32) %37, i8 0, i64 32, i1 false)
  %39 = load ptr, ptr %1, align 8, !tbaa !3
  %40 = getelementptr inbounds nuw i8, ptr %39, i64 72
  %41 = load ptr, ptr %40, align 8
  invoke void %41(ptr noundef nonnull align 8 dereferenceable(8) %1, ptr noundef nonnull align 8 dereferenceable(8) %38)
          to label %42 unwind label %52

42:                                               ; preds = %4
  %43 = load ptr, ptr %1, align 8, !tbaa !3
  %44 = getelementptr inbounds nuw i8, ptr %43, i64 48
  %45 = load ptr, ptr %44, align 8
  %46 = invoke noundef nonnull align 8 dereferenceable(8) ptr %45(ptr noundef nonnull align 8 dereferenceable(8) %1)
          to label %47 unwind label %52

47:                                               ; preds = %42
  %48 = load ptr, ptr %0, align 8, !tbaa !3
  %49 = getelementptr inbounds nuw i8, ptr %48, i64 64
  %50 = load ptr, ptr %49, align 8
  invoke void %50(ptr noundef nonnull align 8 dereferenceable(160) %0, ptr noundef nonnull align 8 dereferenceable(8) %46)
          to label %51 unwind label %52

51:                                               ; preds = %47
  ret void

52:                                               ; preds = %47, %42, %4
  %53 = landingpad { ptr, i32 }
          cleanup
  %54 = getelementptr inbounds nuw i8, ptr %0, i64 152
  %55 = getelementptr inbounds nuw i8, ptr %0, i64 144
  tail call void @_ZN10params_refD1Ev(ptr noundef nonnull align 8 dereferenceable(8) %54) #25
  tail call void @_ZN6vectorI6symbolLb0EjED2Ev(ptr noundef nonnull align 8 dereferenceable(8) %55) #25
  tail call void @_ZN3refI5modelED2Ev(ptr noundef nonnull align 8 dereferenceable(8) %38) #25
  tail call void @_ZN8rationalD2Ev(ptr noundef nonnull align 8 dereferenceable(32) %28) #25
  tail call void @_ZN8rationalD2Ev(ptr noundef nonnull align 8 dereferenceable(32) %18) #25
  tail call void @_ZN15ref_vector_coreI4expr19ref_manager_wrapperIS0_11ast_managerEED2Ev(ptr noundef nonnull align 8 dereferenceable(16) %16) #25
  tail call void @_ZN15ref_vector_coreI4expr19ref_manager_wrapperIS0_11ast_managerEED2Ev(ptr noundef nonnull align 8 dereferenceable(16) %13) #25
  resume { ptr, i32 } %53
}